target datalayout = "e-m:e-p270:32:32-p271:32:32-p272:64:64-i64:64-i128:128-f80:128-n8:16:32:64-S128"
target triple = "x86_64-pc-linux-gnu"

%"class.llvm::vfs::Status" = type <{ %"class.std::__cxx11::basic_string", %"class.llvm::sys::fs::UniqueID", %"class.std::chrono::time_point", i32, i32, i64, i32, i32, i8, [7 x i8] }>
%"class.std::__cxx11::basic_string" = type { %"struct.std::__cxx11::basic_string<char>::_Alloc_hider", i64, %union.anon }
%"struct.std::__cxx11::basic_string<char>::_Alloc_hider" = type { ptr }
%union.anon = type { i64, [8 x i8] }
%"class.llvm::sys::fs::UniqueID" = type { i64, i64 }
%"class.std::chrono::time_point" = type { %"class.std::chrono::duration" }
%"class.std::chrono::duration" = type { i64 }
%"class.std::error_code" = type { i32, ptr }
%"class.llvm::ErrorOr.12" = type { %union.anon.13, i8, [7 x i8] }
%union.anon.13 = type { %"struct.llvm::AlignedCharArrayUnion.14" }
%"struct.llvm::AlignedCharArrayUnion.14" = type { [88 x i8] }
%"class.llvm::SmallString" = type { %"class.llvm::SmallVector.101" }
%"class.llvm::SmallVector.101" = type { %"class.llvm::SmallVectorImpl", %"struct.llvm::SmallVectorStorage.102" }
%"class.llvm::SmallVectorImpl" = type { %"class.llvm::SmallVectorTemplateBase" }
%"class.llvm::SmallVectorTemplateBase" = type { %"class.llvm::SmallVectorTemplateCommon" }
%"class.llvm::SmallVectorTemplateCommon" = type { %"class.llvm::SmallVectorBase" }
%"class.llvm::SmallVectorBase" = type { ptr, i64, i64 }
%"struct.llvm::SmallVectorStorage.102" = type { [128 x i8] }
%"class.llvm::vfs::detail::NamedNodeOrError" = type { %"class.llvm::ErrorOr.113" }
%"class.llvm::ErrorOr.113" = type { %union.anon.114, i8, [7 x i8] }
%union.anon.114 = type { %"struct.llvm::AlignedCharArrayUnion.115" }
%"struct.llvm::AlignedCharArrayUnion.115" = type { [160 x i8] }
%"struct.std::pair.338" = type { %"class.llvm::SmallString", ptr }

; Function Attrs: mustprogress nounwind uwtable
define linkonce_odr hidden noundef ptr @_ZNK4llvm25SmallVectorTemplateCommonIcvE10getFirstElEv(ptr noundef nonnull align 8 dereferenceable(24) %0) #0 comdat align 2 {
  %2 = alloca ptr, align 8
  store ptr %0, ptr %2, align 8
  %3 = load ptr, ptr %2, align 8
  %4 = getelementptr inbounds i8, ptr %3, i64 24
  ret ptr %4
}

; Function Attrs: mustprogress nounwind uwtable
define linkonce_odr hidden noundef zeroext i1 @_ZNK4llvm25SmallVectorTemplateCommonIcvE7isSmallEv(ptr noundef nonnull align 8 dereferenceable(24) %0) #0 comdat align 2 {
  %2 = alloca ptr, align 8
  store ptr %0, ptr %2, align 8
  %3 = load ptr, ptr %2, align 8
  %4 = getelementptr inbounds nuw %"class.llvm::SmallVectorBase", ptr %3, i32 0, i32 0
  %5 = load ptr, ptr %4, align 8
  %6 = call noundef ptr @_ZNK4llvm25SmallVectorTemplateCommonIcvE10getFirstElEv(ptr noundef nonnull align 8 dereferenceable(24) %3)
  %7 = icmp eq ptr %5, %6
  ret i1 %7
}

; Function Attrs: mustprogress nounwind uwtable
define linkonce_odr hidden void @_ZN4llvm15SmallVectorImplIcED2Ev(ptr noundef nonnull align 8 dereferenceable(24) %0) unnamed_addr #0 comdat align 2 {
  %2 = alloca ptr, align 8
  store ptr %0, ptr %2, align 8
  %3 = load ptr, ptr %2, align 8
  %4 = call noundef zeroext i1 @_ZNK4llvm25SmallVectorTemplateCommonIcvE7isSmallEv(ptr noundef nonnull align 8 dereferenceable(24) %3)
  br i1 %4, label %7, label %5

5:                                                ; preds = %1
  %6 = call noundef ptr @_ZN4llvm25SmallVectorTemplateCommonIcvE5beginEv(ptr noundef nonnull align 8 dereferenceable(24) %3)
  call void @free(ptr noundef %6) #5
  br label %7

7:                                                ; preds = %5, %1
  ret void
}

; Function Attrs: mustprogress nounwind uwtable
define linkonce_odr hidden void @_ZN4llvm23SmallVectorTemplateBaseIcLb1EE13destroy_rangeEPcS2_(ptr noundef %0, ptr noundef %1) #0 comdat align 2 {
  %3 = alloca ptr, align 8
  %4 = alloca ptr, align 8
  store ptr %0, ptr %3, align 8
  store ptr %1, ptr %4, align 8
  ret void
}

; Function Attrs: mustprogress nounwind uwtable
define linkonce_odr hidden noundef ptr @_ZN4llvm25SmallVectorTemplateCommonIcvE3endEv(ptr noundef nonnull align 8 dereferenceable(24) %0) #0 comdat align 2 {
  %2 = alloca ptr, align 8
  store ptr %0, ptr %2, align 8
  %3 = load ptr, ptr %2, align 8
  %4 = call noundef ptr @_ZN4llvm25SmallVectorTemplateCommonIcvE5beginEv(ptr noundef nonnull align 8 dereferenceable(24) %3)
  %5 = call noundef i64 @_ZNK4llvm15SmallVectorBaseImE4sizeEv(ptr noundef nonnull align 8 dereferenceable(24) %3)
  %6 = getelementptr inbounds i8, ptr %4, i64 %5
  ret ptr %6
}

; Function Attrs: mustprogress nounwind uwtable
define linkonce_odr hidden noundef ptr @_ZN4llvm25SmallVectorTemplateCommonIcvE5beginEv(ptr noundef nonnull align 8 dereferenceable(24) %0) #0 comdat align 2 {
  %2 = alloca ptr, align 8
  store ptr %0, ptr %2, align 8
  %3 = load ptr, ptr %2, align 8
  %4 = getelementptr inbounds nuw %"class.llvm::SmallVectorBase", ptr %3, i32 0, i32 0
  %5 = load ptr, ptr %4, align 8
  ret ptr %5
}

; Function Attrs: mustprogress nounwind uwtable
define linkonce_odr hidden void @_ZN4llvm11SmallVectorIcLj128EED2Ev(ptr noundef nonnull align 8 dereferenceable(152) %0) unnamed_addr #0 comdat align 2 {
  %2 = alloca ptr, align 8
  store ptr %0, ptr %2, align 8
  %3 = load ptr, ptr %2, align 8
  %4 = call noundef ptr @_ZN4llvm25SmallVectorTemplateCommonIcvE5beginEv(ptr noundef nonnull align 8 dereferenceable(24) %3)
  %5 = call noundef ptr @_ZN4llvm25SmallVectorTemplateCommonIcvE3endEv(ptr noundef nonnull align 8 dereferenceable(24) %3)
  call void @_ZN4llvm23SmallVectorTemplateBaseIcLb1EE13destroy_rangeEPcS2_(ptr noundef %4, ptr noundef %5)
  call void @_ZN4llvm15SmallVectorImplIcED2Ev(ptr noundef nonnull align 8 dereferenceable(24) %3) #5
  ret void
}

; Function Attrs: mustprogress nounwind uwtable
define linkonce_odr hidden void @_ZN4llvm11SmallStringILj128EED2Ev(ptr noundef nonnull align 8 dereferenceable(152) %0) unnamed_addr #0 comdat align 2 {
  %2 = alloca ptr, align 8
  store ptr %0, ptr %2, align 8
  %3 = load ptr, ptr %2, align 8
  call void @_ZN4llvm11SmallVectorIcLj128EED2Ev(ptr noundef nonnull align 8 dereferenceable(152) %3) #5
  ret void
}

; Function Attrs: mustprogress nounwind uwtable
define linkonce_odr hidden noundef ptr @_ZN4llvm7ErrorOrISt4pairINS_11SmallStringILj128EEEPKNS_3vfs6detail12InMemoryNodeEEE15getErrorStorageEv(ptr noundef nonnull align 8 dereferenceable(161) %0) #0 comdat align 2 {
  %2 = alloca ptr, align 8
  store ptr %0, ptr %2, align 8
  %3 = load ptr, ptr %2, align 8
  %4 = getelementptr inbounds nuw %"class.llvm::ErrorOr.113", ptr %3, i32 0, i32 0
  ret ptr %4
}

; Function Attrs: mustprogress nounwind uwtable
define linkonce_odr hidden void @_ZNSt4pairIN4llvm11SmallStringILj128EEEPKNS0_3vfs6detail12InMemoryNodeEED2Ev(ptr noundef nonnull align 8 dereferenceable(160) %0) unnamed_addr #0 comdat align 2 {
  %2 = alloca ptr, align 8
  store ptr %0, ptr %2, align 8
  %3 = load ptr, ptr %2, align 8
  %4 = getelementptr inbounds nuw %"struct.std::pair.338", ptr %3, i32 0, i32 0
  call void @_ZN4llvm11SmallStringILj128EED2Ev(ptr noundef nonnull align 8 dereferenceable(152) %4) #5
  ret void
}

; Function Attrs: mustprogress nounwind uwtable
define linkonce_odr hidden noundef ptr @_ZN4llvm7ErrorOrISt4pairINS_11SmallStringILj128EEEPKNS_3vfs6detail12InMemoryNodeEEE10getStorageEv(ptr noundef nonnull align 8 dereferenceable(161) %0) #0 comdat align 2 {
  %2 = alloca ptr, align 8
  store ptr %0, ptr %2, align 8
  %3 = load ptr, ptr %2, align 8
  %4 = getelementptr inbounds nuw %"class.llvm::ErrorOr.113", ptr %3, i32 0, i32 0
  ret ptr %4
}

; Function Attrs: mustprogress nounwind uwtable
define linkonce_odr hidden void @_ZNSt10error_codeC2Ev(ptr noundef nonnull align 8 dereferenceable(16) %0) unnamed_addr #0 comdat align 2 {
  %2 = alloca ptr, align 8
  store ptr %0, ptr %2, align 8
  %3 = load ptr, ptr %2, align 8
  %4 = getelementptr inbounds nuw %"class.std::error_code", ptr %3, i32 0, i32 0
  store i32 0, ptr %4, align 8
  %5 = getelementptr inbounds nuw %"class.std::error_code", ptr %3, i32 0, i32 1
  %6 = call noundef nonnull align 8 dereferenceable(8) ptr @_ZNSt3_V215system_categoryEv() #14
  store ptr %6, ptr %5, align 8
  ret void
}

; Function Attrs: mustprogress nounwind uwtable
define linkonce_odr hidden noundef ptr @_ZNK4llvm7ErrorOrISt4pairINS_11SmallStringILj128EEEPKNS_3vfs6detail12InMemoryNodeEEE15getErrorStorageEv(ptr noundef nonnull align 8 dereferenceable(161) %0) #0 comdat align 2 {
  %2 = alloca ptr, align 8
  store ptr %0, ptr %2, align 8
  %3 = load ptr, ptr %2, align 8
  %4 = call noundef ptr @_ZN4llvm7ErrorOrISt4pairINS_11SmallStringILj128EEEPKNS_3vfs6detail12InMemoryNodeEEE15getErrorStorageEv(ptr noundef nonnull align 8 dereferenceable(161) %3)
  ret ptr %4
}

; Function Attrs: mustprogress nounwind uwtable
define linkonce_odr hidden noundef ptr @_ZNK4llvm7ErrorOrISt4pairINS_11SmallStringILj128EEEPKNS_3vfs6detail12InMemoryNodeEEE10getStorageEv(ptr noundef nonnull align 8 dereferenceable(161) %0) #0 comdat align 2 {
  %2 = alloca ptr, align 8
  store ptr %0, ptr %2, align 8
  %3 = load ptr, ptr %2, align 8
  %4 = getelementptr inbounds nuw %"class.llvm::ErrorOr.113", ptr %3, i32 0, i32 0
  ret ptr %4
}

; Function Attrs: mustprogress nounwind uwtable
define linkonce_odr hidden void @_ZN4llvm7ErrorOrISt4pairINS_11SmallStringILj128EEEPKNS_3vfs6detail12InMemoryNodeEEED2Ev(ptr noundef nonnull align 8 dereferenceable(161) %0) unnamed_addr #0 comdat align 2 {
  %2 = alloca ptr, align 8
  store ptr %0, ptr %2, align 8
  %3 = load ptr, ptr %2, align 8
  %4 = getelementptr inbounds nuw %"class.llvm::ErrorOr.113", ptr %3, i32 0, i32 1
  %5 = load i8, ptr %4, align 8
  %6 = and i8 %5, 1
  %7 = trunc i8 %6 to i1
  br i1 %7, label %10, label %8

8:                                                ; preds = %1
  %9 = call noundef ptr @_ZN4llvm7ErrorOrISt4pairINS_11SmallStringILj128EEEPKNS_3vfs6detail12InMemoryNodeEEE10getStorageEv(ptr noundef nonnull align 8 dereferenceable(161) %3)
  call void @_ZNSt4pairIN4llvm11SmallStringILj128EEEPKNS0_3vfs6detail12InMemoryNodeEED2Ev(ptr noundef nonnull align 8 dereferenceable(160) %9) #5
  br label %10

10:                                               ; preds = %8, %1
  ret void
}

; Function Attrs: mustprogress nounwind uwtable
define linkonce_odr hidden noundef ptr @_ZN4llvm7ErrorOrINS_3vfs6StatusEE15getErrorStorageEv(ptr noundef nonnull align 8 dereferenceable(89) %0) #0 comdat align 2 {
  %2 = alloca ptr, align 8
  store ptr %0, ptr %2, align 8
  %3 = load ptr, ptr %2, align 8
  %4 = getelementptr inbounds nuw %"class.llvm::ErrorOr.12", ptr %3, i32 0, i32 0
  ret ptr %4
}

; Function Attrs: mustprogress nounwind uwtable
define linkonce_odr hidden { i32, ptr } @_ZNK4llvm7ErrorOrISt4pairINS_11SmallStringILj128EEEPKNS_3vfs6detail12InMemoryNodeEEE8getErrorEv(ptr noundef nonnull align 8 dereferenceable(161) %0) #0 comdat align 2 {
  %2 = alloca %"class.std::error_code", align 8
  %3 = alloca ptr, align 8
  store ptr %0, ptr %3, align 8
  %4 = load ptr, ptr %3, align 8
  %5 = getelementptr inbounds nuw %"class.llvm::ErrorOr.113", ptr %4, i32 0, i32 1
  %6 = load i8, ptr %5, align 8
  %7 = and i8 %6, 1
  %8 = trunc i8 %7 to i1
  br i1 %8, label %9, label %11

9:                                                ; preds = %1
  %10 = call noundef ptr @_ZNK4llvm7ErrorOrISt4pairINS_11SmallStringILj128EEEPKNS_3vfs6detail12InMemoryNodeEEE15getErrorStorageEv(ptr noundef nonnull align 8 dereferenceable(161) %4)
  call void @llvm.memcpy.p0.p0.i64(ptr align 8 %2, ptr align 8 %10, i64 16, i1 false)
  br label %12

11:                                               ; preds = %1
  call void @_ZNSt10error_codeC2Ev(ptr noundef nonnull align 8 dereferenceable(16) %2) #5
  br label %12

12:                                               ; preds = %11, %9
  %13 = load { i32, ptr }, ptr %2, align 8
  ret { i32, ptr } %13
}

; Function Attrs: mustprogress nounwind uwtable
define linkonce_odr hidden void @_ZN4llvm3vfs6StatusC2EOS1_(ptr noundef nonnull align 8 dereferenceable(81) %0, ptr noundef nonnull align 8 dereferenceable(81) %1) unnamed_addr #0 comdat align 2 {
  %3 = alloca ptr, align 8
  %4 = alloca ptr, align 8
  store ptr %0, ptr %3, align 8
  store ptr %1, ptr %4, align 8
  %5 = load ptr, ptr %3, align 8
  %6 = getelementptr inbounds nuw %"class.llvm::vfs::Status", ptr %5, i32 0, i32 0
  %7 = load ptr, ptr %4, align 8
  %8 = getelementptr inbounds nuw %"class.llvm::vfs::Status", ptr %7, i32 0, i32 0
  call void @_ZNSt7__cxx1112basic_stringIcSt11char_traitsIcESaIcEEC1EOS4_(ptr noundef nonnull align 8 dereferenceable(32) %6, ptr noundef nonnull align 8 dereferenceable(32) %8) #5
  %9 = getelementptr inbounds nuw %"class.llvm::vfs::Status", ptr %5, i32 0, i32 1
  %10 = load ptr, ptr %4, align 8
  %11 = getelementptr inbounds nuw %"class.llvm::vfs::Status", ptr %10, i32 0, i32 1
  call void @llvm.memcpy.p0.p0.i64(ptr align 8 %9, ptr align 8 %11, i64 49, i1 false)
  ret void
}

; Function Attrs: mustprogress nounwind uwtable
define linkonce_odr hidden noundef ptr @_ZN4llvm7ErrorOrINS_3vfs6StatusEE10getStorageEv(ptr noundef nonnull align 8 dereferenceable(89) %0) #0 comdat align 2 {
  %2 = alloca ptr, align 8
  store ptr %0, ptr %2, align 8
  %3 = load ptr, ptr %2, align 8
  %4 = getelementptr inbounds nuw %"class.llvm::ErrorOr.12", ptr %3, i32 0, i32 0
  ret ptr %4
}

; Function Attrs: mustprogress nounwind uwtable
define linkonce_odr hidden noundef nonnull align 8 dereferenceable(160) ptr @_ZNK4llvm7ErrorOrISt4pairINS_11SmallStringILj128EEEPKNS_3vfs6detail12InMemoryNodeEEEdeEv(ptr noundef nonnull align 8 dereferenceable(161) %0) #0 comdat align 2 {
  %2 = alloca ptr, align 8
  store ptr %0, ptr %2, align 8
  %3 = load ptr, ptr %2, align 8
  %4 = call noundef ptr @_ZNK4llvm7ErrorOrISt4pairINS_11SmallStringILj128EEEPKNS_3vfs6detail12InMemoryNodeEEE10getStorageEv(ptr noundef nonnull align 8 dereferenceable(161) %3)
  ret ptr %4
}

; Function Attrs: mustprogress nounwind uwtable
define linkonce_odr hidden noundef zeroext i1 @_ZNK4llvm7ErrorOrISt4pairINS_11SmallStringILj128EEEPKNS_3vfs6detail12InMemoryNodeEEEcvbEv(ptr noundef nonnull align 8 dereferenceable(161) %0) #0 comdat align 2 {
  %2 = alloca ptr, align 8
  store ptr %0, ptr %2, align 8
  %3 = load ptr, ptr %2, align 8
  %4 = getelementptr inbounds nuw %"class.llvm::ErrorOr.113", ptr %3, i32 0, i32 1
  %5 = load i8, ptr %4, align 8
  %6 = and i8 %5, 1
  %7 = trunc i8 %6 to i1
  %8 = xor i1 %7, true
  ret i1 %8
}

; Function Attrs: mustprogress nounwind uwtable
define linkonce_odr hidden void @_ZN4llvm3vfs6detail16NamedNodeOrErrorD2Ev(ptr noundef nonnull align 8 dereferenceable(168) %0) unnamed_addr #0 comdat align 2 {
  %2 = alloca ptr, align 8
  store ptr %0, ptr %2, align 8
  %3 = load ptr, ptr %2, align 8
  %4 = getelementptr inbounds nuw %"class.llvm::vfs::detail::NamedNodeOrError", ptr %3, i32 0, i32 0
  call void @_ZN4llvm7ErrorOrISt4pairINS_11SmallStringILj128EEEPKNS_3vfs6detail12InMemoryNodeEEED2Ev(ptr noundef nonnull align 8 dereferenceable(161) %4) #5
  ret void
}

; Function Attrs: mustprogress nounwind uwtable
define linkonce_odr hidden void @_ZN4llvm7ErrorOrINS_3vfs6StatusEEC2ESt10error_code(ptr noundef nonnull align 8 dereferenceable(89) %0, i32 %1, ptr %2) unnamed_addr #0 comdat align 2 {
  %4 = alloca %"class.std::error_code", align 8
  %5 = alloca ptr, align 8
  %6 = getelementptr inbounds nuw { i32, ptr }, ptr %4, i32 0, i32 0
  store i32 %1, ptr %6, align 8
  %7 = getelementptr inbounds nuw { i32, ptr }, ptr %4, i32 0, i32 1
  store ptr %2, ptr %7, align 8
  store ptr %0, ptr %5, align 8
  %8 = load ptr, ptr %5, align 8
  %9 = getelementptr inbounds nuw %"class.llvm::ErrorOr.12", ptr %8, i32 0, i32 1
  %10 = load i8, ptr %9, align 8
  %11 = and i8 %10, -2
  %12 = or i8 %11, 1
  store i8 %12, ptr %9, align 8
  %13 = call noundef ptr @_ZN4llvm7ErrorOrINS_3vfs6StatusEE15getErrorStorageEv(ptr noundef nonnull align 8 dereferenceable(89) %8)
  call void @llvm.memcpy.p0.p0.i64(ptr align 8 %13, ptr align 8 %4, i64 16, i1 false)
  ret void
}

; Function Attrs: mustprogress nounwind uwtable
define linkonce_odr hidden { i32, ptr } @_ZNK4llvm3vfs6detail16NamedNodeOrError8getErrorEv(ptr noundef nonnull align 8 dereferenceable(168) %0) #0 comdat align 2 {
  %2 = alloca %"class.std::error_code", align 8
  %3 = alloca ptr, align 8
  store ptr %0, ptr %3, align 8
  %4 = load ptr, ptr %3, align 8
  %5 = getelementptr inbounds nuw %"class.llvm::vfs::detail::NamedNodeOrError", ptr %4, i32 0, i32 0
  %6 = call { i32, ptr } @_ZNK4llvm7ErrorOrISt4pairINS_11SmallStringILj128EEEPKNS_3vfs6detail12InMemoryNodeEEE8getErrorEv(ptr noundef nonnull align 8 dereferenceable(161) %5)
  %7 = getelementptr inbounds nuw { i32, ptr }, ptr %2, i32 0, i32 0
  %8 = extractvalue { i32, ptr } %6, 0
  store i32 %8, ptr %7, align 8
  %9 = getelementptr inbounds nuw { i32, ptr }, ptr %2, i32 0, i32 1
  %10 = extractvalue { i32, ptr } %6, 1
  store ptr %10, ptr %9, align 8
  %11 = load { i32, ptr }, ptr %2, align 8
  ret { i32, ptr } %11
}

; Function Attrs: mustprogress nounwind uwtable
define linkonce_odr hidden void @_ZN4llvm3vfs6StatusD2Ev(ptr noundef nonnull align 8 dereferenceable(81) %0) unnamed_addr #0 comdat align 2 {
  %2 = alloca ptr, align 8
  store ptr %0, ptr %2, align 8
  %3 = load ptr, ptr %2, align 8
  %4 = getelementptr inbounds nuw %"class.llvm::vfs::Status", ptr %3, i32 0, i32 0
  call void @_ZNSt7__cxx1112basic_stringIcSt11char_traitsIcESaIcEED1Ev(ptr noundef nonnull align 8 dereferenceable(32) %4) #5
  ret void
}

; Function Attrs: mustprogress nounwind uwtable
define linkonce_odr hidden void @_ZN4llvm7ErrorOrINS_3vfs6StatusEEC2IS2_EEOT_PNSt9enable_ifIXsr3stdE16is_convertible_vIS5_S2_EEvE4typeE(ptr noundef nonnull align 8 dereferenceable(89) %0, ptr noundef nonnull align 8 dereferenceable(81) %1, ptr noundef %2) unnamed_addr #0 comdat align 2 {
  %4 = alloca ptr, align 8
  %5 = alloca ptr, align 8
  %6 = alloca ptr, align 8
  store ptr %0, ptr %4, align 8
  store ptr %1, ptr %5, align 8
  store ptr %2, ptr %6, align 8
  %7 = load ptr, ptr %4, align 8
  %8 = getelementptr inbounds nuw %"class.llvm::ErrorOr.12", ptr %7, i32 0, i32 1
  %9 = load i8, ptr %8, align 8
  %10 = and i8 %9, -2
  %11 = or i8 %10, 0
  store i8 %11, ptr %8, align 8
  %12 = call noundef ptr @_ZN4llvm7ErrorOrINS_3vfs6StatusEE10getStorageEv(ptr noundef nonnull align 8 dereferenceable(89) %7)
  %13 = load ptr, ptr %5, align 8
  call void @_ZN4llvm3vfs6StatusC2EOS1_(ptr noundef nonnull align 8 dereferenceable(81) %12, ptr noundef nonnull align 8 dereferenceable(81) %13) #5
  ret void
}

; Function Attrs: mustprogress nounwind uwtable
define linkonce_odr hidden noundef ptr @_ZNK4llvm3vfs6detail16NamedNodeOrErrordeEv(ptr noundef nonnull align 8 dereferenceable(168) %0) #0 comdat align 2 {
  %2 = alloca ptr, align 8
  store ptr %0, ptr %2, align 8
  %3 = load ptr, ptr %2, align 8
  %4 = getelementptr inbounds nuw %"class.llvm::vfs::detail::NamedNodeOrError", ptr %3, i32 0, i32 0
  %5 = call noundef nonnull align 8 dereferenceable(160) ptr @_ZNK4llvm7ErrorOrISt4pairINS_11SmallStringILj128EEEPKNS_3vfs6detail12InMemoryNodeEEEdeEv(ptr noundef nonnull align 8 dereferenceable(161) %4)
  %6 = getelementptr inbounds nuw %"struct.std::pair.338", ptr %5, i32 0, i32 1
  %7 = load ptr, ptr %6, align 8
  ret ptr %7
}

; Function Attrs: mustprogress nounwind uwtable
define linkonce_odr hidden noundef zeroext i1 @_ZNK4llvm3vfs6detail16NamedNodeOrErrorcvbEv(ptr noundef nonnull align 8 dereferenceable(168) %0) #0 comdat align 2 {
  %2 = alloca ptr, align 8
  store ptr %0, ptr %2, align 8
  %3 = load ptr, ptr %2, align 8
  %4 = getelementptr inbounds nuw %"class.llvm::vfs::detail::NamedNodeOrError", ptr %3, i32 0, i32 0
  %5 = call noundef zeroext i1 @_ZNK4llvm7ErrorOrISt4pairINS_11SmallStringILj128EEEPKNS_3vfs6detail12InMemoryNodeEEEcvbEv(ptr noundef nonnull align 8 dereferenceable(161) %4)
  ret i1 %5
}

; Function Attrs: mustprogress nounwind uwtable
define dso_local void @_ZN4llvm3vfs18InMemoryFileSystem6statusERKNS_5TwineE(ptr dead_on_unwind noalias writable sret(%"class.llvm::ErrorOr.12") align 8 %0, ptr noundef nonnull align 8 dereferenceable(57) %1, ptr noundef nonnull align 8 dereferenceable(34) %2) unnamed_addr #0 align 2 {
  %4 = alloca ptr, align 8
  %5 = alloca ptr, align 8
  %6 = alloca ptr, align 8
  %7 = alloca %"class.llvm::vfs::detail::NamedNodeOrError", align 8
  %8 = alloca %"class.llvm::vfs::Status", align 8
  %9 = alloca i32, align 4
  %10 = alloca %"class.std::error_code", align 8
  store ptr %0, ptr %4, align 8
  store ptr %1, ptr %5, align 8
  store ptr %2, ptr %6, align 8
  %11 = load ptr, ptr %5, align 8
  %12 = load ptr, ptr %6, align 8
  call void @_ZNK4llvm3vfs18InMemoryFileSystem10lookupNodeERKNS_5TwineEbm(ptr dead_on_unwind writable sret(%"class.llvm::vfs::detail::NamedNodeOrError") align 8 %7, ptr noundef nonnull align 8 dereferenceable(57) %11, ptr noundef nonnull align 8 dereferenceable(34) %12, i1 noundef zeroext true, i64 noundef 0)
  %13 = call noundef zeroext i1 @_ZNK4llvm3vfs6detail16NamedNodeOrErrorcvbEv(ptr noundef nonnull align 8 dereferenceable(168) %7)
  br i1 %13, label %14, label %20

14:                                               ; preds = %3
  %15 = call noundef ptr @_ZNK4llvm3vfs6detail16NamedNodeOrErrordeEv(ptr noundef nonnull align 8 dereferenceable(168) %7)
  %16 = load ptr, ptr %6, align 8
  %17 = load ptr, ptr %15, align 8
  %18 = getelementptr inbounds ptr, ptr %17, i64 2
  %19 = load ptr, ptr %18, align 8
  call void %19(ptr dead_on_unwind writable sret(%"class.llvm::vfs::Status") align 8 %8, ptr noundef nonnull align 8 dereferenceable(48) %15, ptr noundef nonnull align 8 dereferenceable(34) %16)
  call void @_ZN4llvm7ErrorOrINS_3vfs6StatusEEC2IS2_EEOT_PNSt9enable_ifIXsr3stdE16is_convertible_vIS5_S2_EEvE4typeE(ptr noundef nonnull align 8 dereferenceable(89) %0, ptr noundef nonnull align 8 dereferenceable(81) %8, ptr noundef null)
  call void @_ZN4llvm3vfs6StatusD2Ev(ptr noundef nonnull align 8 dereferenceable(81) %8) #5
  store i32 1, ptr %9, align 4
  br label %30

20:                                               ; preds = %3
  %21 = call { i32, ptr } @_ZNK4llvm3vfs6detail16NamedNodeOrError8getErrorEv(ptr noundef nonnull align 8 dereferenceable(168) %7)
  %22 = getelementptr inbounds nuw { i32, ptr }, ptr %10, i32 0, i32 0
  %23 = extractvalue { i32, ptr } %21, 0
  store i32 %23, ptr %22, align 8
  %24 = getelementptr inbounds nuw { i32, ptr }, ptr %10, i32 0, i32 1
  %25 = extractvalue { i32, ptr } %21, 1
  store ptr %25, ptr %24, align 8
  %26 = getelementptr inbounds nuw { i32, ptr }, ptr %10, i32 0, i32 0
  %27 = load i32, ptr %26, align 8
  %28 = getelementptr inbounds nuw { i32, ptr }, ptr %10, i32 0, i32 1
  %29 = load ptr, ptr %28, align 8
  call void @_ZN4llvm7ErrorOrINS_3vfs6StatusEEC2ESt10error_code(ptr noundef nonnull align 8 dereferenceable(89) %0, i32 %27, ptr %29)
  store i32 1, ptr %9, align 4
  br label %30

30:                                               ; preds = %20, %14
  call void @_ZN4llvm3vfs6detail16NamedNodeOrErrorD2Ev(ptr noundef nonnull align 8 dereferenceable(168) %7) #5
  ret void
}