; Function Attrs: mustprogress nounwind uwtable
define dso_local void @_ZN4llvm3vfs18InMemoryFileSystem6statusERKNS_5TwineE(ptr dead_on_unwind noalias writable sret(%"class.llvm::ErrorOr.12") align 8 %0, ptr noundef nonnull align 8 dereferenceable(57) %1, ptr noundef nonnull align 8 dereferenceable(34) %2) unnamed_addr #0 align 2 {
  %4 = alloca %"class.llvm::vfs::detail::NamedNodeOrError", align 8
  %5 = alloca %"class.llvm::vfs::Status", align 8
  call void @_ZNK4llvm3vfs18InMemoryFileSystem10lookupNodeERKNS_5TwineEbm(ptr dead_on_unwind nonnull writable sret(%"class.llvm::vfs::detail::NamedNodeOrError") align 8 %4, ptr noundef nonnull align 8 dereferenceable(57) %1, ptr noundef nonnull align 8 dereferenceable(34) %2, i1 noundef zeroext true, i64 noundef 0)
  %6 = getelementptr inbounds nuw i8, ptr %4, i64 160
  %7 = load i8, ptr %6, align 8
  %8 = trunc i8 %7 to i1
  br i1 %8, label %_ZNK4llvm3vfs6detail16NamedNodeOrError8getErrorEv.exit, label %9

9:                                                ; preds = %3
  %10 = getelementptr inbounds nuw i8, ptr %4, i64 152
  %11 = load ptr, ptr %10, align 8
  %12 = load ptr, ptr %11, align 8
  %13 = getelementptr inbounds i8, ptr %12, i64 16
  %14 = load ptr, ptr %13, align 8
  call void %14(ptr dead_on_unwind nonnull writable sret(%"class.llvm::vfs::Status") align 8 %5, ptr noundef nonnull align 8 dereferenceable(48) %11, ptr noundef nonnull align 8 dereferenceable(34) %2) #27
  %15 = getelementptr inbounds nuw i8, ptr %0, i64 88
  %16 = load i8, ptr %15, align 8
  %17 = and i8 %16, -2
  store i8 %17, ptr %15, align 8
  call void @_ZNSt7__cxx1112basic_stringIcSt11char_traitsIcESaIcEEC1EOS4_(ptr noundef nonnull align 8 dereferenceable(32) %0, ptr noundef nonnull align 8 dereferenceable(32) %5) #27
  %18 = getelementptr inbounds nuw i8, ptr %0, i64 32
  %19 = getelementptr inbounds nuw i8, ptr %5, i64 32
  call void @llvm.memcpy.p0.p0.i64(ptr noundef nonnull align 8 dereferenceable(49) %18, ptr noundef nonnull align 8 dereferenceable(49) %19, i64 49, i1 false)
  call void @_ZNSt7__cxx1112basic_stringIcSt11char_traitsIcESaIcEED1Ev(ptr noundef nonnull align 8 dereferenceable(32) %5) #27
  %.pre = load i8, ptr %6, align 8
  br label %23

_ZNK4llvm3vfs6detail16NamedNodeOrError8getErrorEv.exit: ; preds = %3
  %.sroa.0.0.copyload.i.i = load i32, ptr %4, align 8
  %.sroa.31.0..sroa_idx.i.i = getelementptr inbounds i8, ptr %4, i64 8
  %.sroa.31.0.copyload.i.i = load ptr, ptr %.sroa.31.0..sroa_idx.i.i, align 8
  %20 = getelementptr inbounds nuw i8, ptr %0, i64 88
  %21 = load i8, ptr %20, align 8
  %22 = or i8 %21, 1
  store i8 %22, ptr %20, align 8
  store i32 %.sroa.0.0.copyload.i.i, ptr %0, align 8
  %.sroa.21.0..sroa_idx.i = getelementptr inbounds i8, ptr %0, i64 8
  store ptr %.sroa.31.0.copyload.i.i, ptr %.sroa.21.0..sroa_idx.i, align 8
  br label %23

23:                                               ; preds = %_ZNK4llvm3vfs6detail16NamedNodeOrError8getErrorEv.exit, %9
  %24 = phi i8 [ %7, %_ZNK4llvm3vfs6detail16NamedNodeOrError8getErrorEv.exit ], [ %.pre, %9 ]
  %25 = trunc i8 %24 to i1
  br i1 %25, label %_ZN4llvm3vfs6detail16NamedNodeOrErrorD2Ev.exit, label %26

26:                                               ; preds = %23
  %27 = call noundef i64 @_ZNK4llvm15SmallVectorBaseImE4sizeEv(ptr noundef nonnull align 8 dereferenceable(24) %4) #27
  %28 = load ptr, ptr %4, align 8
  %29 = getelementptr inbounds i8, ptr %4, i64 24
  %30 = icmp eq ptr %28, %29
  br i1 %30, label %_ZN4llvm3vfs6detail16NamedNodeOrErrorD2Ev.exit, label %31

31:                                               ; preds = %26
  call void @free(ptr noundef %28) #27
  br label %_ZN4llvm3vfs6detail16NamedNodeOrErrorD2Ev.exit

_ZN4llvm3vfs6detail16NamedNodeOrErrorD2Ev.exit:   ; preds = %23, %26, %31
  ret void
}